; Function Attrs: mustprogress nofree norecurse nosync nounwind null_pointer_is_valid sspstrong willreturn memory(none) uwtable
define internal noundef zeroext i1 @check_cops(i32 noundef %0, i16 noundef zeroext %1) #7 {
  %3 = icmp eq i32 %0, 2
  %4 = and i16 %1, -3
  %or.cond = icmp eq i16 %4, 61
  %or.cond10 = and i1 %3, %or.cond
  br i1 %or.cond10, label %8, label %5

5:                                                ; preds = %2
  %6 = icmp eq i32 %0, 1
  %7 = icmp eq i16 %1, 58
  %or.cond5 = and i1 %6, %7
  br label %8

8:                                                ; preds = %5, %2
  %.0 = phi i1 [ true, %2 ], [ %or.cond5, %5 ]
  ret i1 %.0
}